target datalayout = "e-m:e-p270:32:32-p271:32:32-p272:64:64-i64:64-i128:128-f80:128-n8:16:32:64-S128"
target triple = "x86_64-pc-linux-gnu"

%struct.FullTransactionId = type { i64 }
%struct.pg_atomic_uint32 = type { i32 }
%struct.LWLock = type { i16, %struct.pg_atomic_uint32, %struct.proclist_head }
%struct.proclist_head = type { i32, i32 }
%union.LWLockPadded = type { %struct.LWLock, [112 x i8] }
%struct.TransamVariablesData = type { i32, i32, %struct.FullTransactionId, i32, i32, i32, i32, i32, i32, i32, i32, %struct.FullTransactionId, i64, i32 }

@TransamVariables = dso_local global ptr null, align 8
@MainLWLockArray = external global ptr, align 8

; Function Attrs: inlinehint nounwind uwtable
define internal i64 @ObjectIdGetDatum(i32 noundef %0) #5 {
  %2 = alloca i32, align 4
  store i32 %0, ptr %2, align 4
  %3 = load i32, ptr %2, align 4
  %4 = zext i32 %3 to i64
  ret i64 %4
}

; Function Attrs: nounwind uwtable
define dso_local zeroext i1 @ForceTransactionIdLimitUpdate() #0 {
  %1 = alloca i1, align 1
  %2 = alloca i32, align 4
  %3 = alloca i32, align 4
  %4 = alloca i32, align 4
  %5 = alloca i32, align 4
  %6 = alloca i32, align 4
  call void @llvm.lifetime.start.p0(i64 4, ptr %2) #8
  call void @llvm.lifetime.start.p0(i64 4, ptr %3) #8
  call void @llvm.lifetime.start.p0(i64 4, ptr %4) #8
  call void @llvm.lifetime.start.p0(i64 4, ptr %5) #8
  %7 = load ptr, ptr @MainLWLockArray, align 8
  %8 = getelementptr inbounds %union.LWLockPadded, ptr %7, i64 3
  %9 = call zeroext i1 @LWLockAcquire(ptr noundef %8, i32 noundef 1)
  %10 = load ptr, ptr @TransamVariables, align 8
  %11 = getelementptr inbounds nuw %struct.TransamVariablesData, ptr %10, i32 0, i32 2
  %12 = getelementptr inbounds nuw %struct.FullTransactionId, ptr %11, i32 0, i32 0
  %13 = load i64, ptr %12, align 8
  %14 = trunc i64 %13 to i32
  store i32 %14, ptr %2, align 4
  %15 = load ptr, ptr @TransamVariables, align 8
  %16 = getelementptr inbounds nuw %struct.TransamVariablesData, ptr %15, i32 0, i32 4
  %17 = load i32, ptr %16, align 4
  store i32 %17, ptr %3, align 4
  %18 = load ptr, ptr @TransamVariables, align 8
  %19 = getelementptr inbounds nuw %struct.TransamVariablesData, ptr %18, i32 0, i32 3
  %20 = load i32, ptr %19, align 8
  store i32 %20, ptr %4, align 4
  %21 = load ptr, ptr @TransamVariables, align 8
  %22 = getelementptr inbounds nuw %struct.TransamVariablesData, ptr %21, i32 0, i32 8
  %23 = load i32, ptr %22, align 4
  store i32 %23, ptr %5, align 4
  %24 = load ptr, ptr @MainLWLockArray, align 8
  %25 = getelementptr inbounds %union.LWLockPadded, ptr %24, i64 3
  call void @LWLockRelease(ptr noundef %25)
  %26 = load i32, ptr %4, align 4
  %27 = icmp uge i32 %26, 3
  br i1 %27, label %29, label %28

28:                                               ; preds = %0
  store i1 true, ptr %1, align 1
  store i32 1, ptr %6, align 4
  br label %44

29:                                               ; preds = %0
  %30 = load i32, ptr %3, align 4
  %31 = icmp ne i32 %30, 0
  br i1 %31, label %33, label %32

32:                                               ; preds = %29
  store i1 true, ptr %1, align 1
  store i32 1, ptr %6, align 4
  br label %44

33:                                               ; preds = %29
  %34 = load i32, ptr %2, align 4
  %35 = load i32, ptr %3, align 4
  %36 = call zeroext i1 @TransactionIdFollowsOrEquals(i32 noundef %34, i32 noundef %35)
  br i1 %36, label %37, label %38

37:                                               ; preds = %33
  store i1 true, ptr %1, align 1
  store i32 1, ptr %6, align 4
  br label %44

38:                                               ; preds = %33
  %39 = load i32, ptr %5, align 4
  %40 = call i64 @ObjectIdGetDatum(i32 noundef %39)
  %41 = call zeroext i1 @SearchSysCacheExists(i32 noundef 21, i64 noundef %40, i64 noundef 0, i64 noundef 0, i64 noundef 0)
  br i1 %41, label %43, label %42

42:                                               ; preds = %38
  store i1 true, ptr %1, align 1
  store i32 1, ptr %6, align 4
  br label %44

43:                                               ; preds = %38
  store i1 false, ptr %1, align 1
  store i32 1, ptr %6, align 4
  br label %44

44:                                               ; preds = %43, %42, %37, %32, %28
  call void @llvm.lifetime.end.p0(i64 4, ptr %5) #8
  call void @llvm.lifetime.end.p0(i64 4, ptr %4) #8
  call void @llvm.lifetime.end.p0(i64 4, ptr %3) #8
  call void @llvm.lifetime.end.p0(i64 4, ptr %2) #8
  %45 = load i1, ptr %1, align 1
  ret i1 %45
}