; Function Attrs: nounwind uwtable
define dso_local zeroext i1 @ForceTransactionIdLimitUpdate() local_unnamed_addr #1 {
  %1 = load ptr, ptr @MainLWLockArray, align 8
  %2 = getelementptr inbounds nuw i8, ptr %1, i64 384
  %3 = tail call zeroext i1 @LWLockAcquire(ptr noundef nonnull %2, i32 noundef 1) #8
  %4 = load ptr, ptr @TransamVariables, align 8
  %5 = getelementptr inbounds nuw i8, ptr %4, i64 8
  %6 = load i64, ptr %5, align 8
  %7 = getelementptr inbounds nuw i8, ptr %4, i64 20
  %8 = load i32, ptr %7, align 4
  %9 = getelementptr inbounds nuw i8, ptr %4, i64 16
  %10 = load i32, ptr %9, align 8
  %11 = getelementptr inbounds nuw i8, ptr %4, i64 36
  %12 = load i32, ptr %11, align 4
  %13 = load ptr, ptr @MainLWLockArray, align 8
  %14 = getelementptr inbounds nuw i8, ptr %13, i64 384
  tail call void @LWLockRelease(ptr noundef nonnull %14) #8
  %15 = icmp ult i32 %10, 3
  %.not = icmp eq i32 %8, 0
  %or.cond = select i1 %15, i1 true, i1 %.not
  br i1 %or.cond, label %22, label %16

16:                                               ; preds = %0
  %17 = trunc i64 %6 to i32
  %18 = tail call zeroext i1 @TransactionIdFollowsOrEquals(i32 noundef %17, i32 noundef %8) #8
  br i1 %18, label %22, label %19

19:                                               ; preds = %16
  %20 = zext i32 %12 to i64
  %21 = tail call zeroext i1 @SearchSysCacheExists(i32 noundef 21, i64 noundef %20, i64 noundef 0, i64 noundef 0, i64 noundef 0) #8
  %not. = xor i1 %21, true
  br label %22

22:                                               ; preds = %19, %16, %0
  %.0 = phi i1 [ true, %0 ], [ true, %16 ], [ %not., %19 ]
  ret i1 %.0
}